

 Start  Stop   Length Name                   Class
 00000H 0FC1DH 0FC1EH _TEXT                  CODE
 0FC1EH 0FC1EH 00000H C_ETEXT                ENDCODE
 0FC20H 0FC55H 00036H NULL                   BEGDATA
 0FC56H 18F41H 092ECH _DATA                  DATA
 18F42H 18F4FH 0000EH CDATA                  DATA
 18F50H 18F50H 00000H XIB                    DATA
 18F50H 18F50H 00000H XI                     DATA
 18F50H 18F50H 00000H XIE                    DATA
 18F50H 18F50H 00000H XPB                    DATA
 18F50H 18F50H 00000H XP                     DATA
 18F50H 18F50H 00000H XPE                    DATA
 18F50H 18F50H 00000H XCB                    DATA
 18F50H 18F50H 00000H XC                     DATA
 18F50H 18F50H 00000H XCE                    DATA
 18F50H 18F50H 00000H CONST                  CONST
 18F50H 18F57H 00008H HDR                    MSG
 18F58H 19028H 000D1H MSG                    MSG
 19029H 1902AH 00002H PAD                    MSG
 1902BH 1902BH 00001H EPAD                   MSG
 1902CH 1902CH 00000H XOB                    BSS
 1902CH 1902CH 00000H XO                     BSS
 1902CH 1902CH 00000H XOE                    BSS
 19030H 19662H 00633H C_COMMON               BSS
 19664H 1A583H 00F20H _BSS                   BSS
 1A590H 1AD8FH 00800H STACK                  STACK

 Origin   Group
 0FC2:0   DGROUP

  Address         Publics by Name

 0FC2:986A       activeChara
 0FC2:0A1E       ACTIVECHARAX
 0FC2:987C       activeCharaY
 0000:918E       AMBUSH
 0000:3F91       ANI_BALLOON
 0000:3873       ANI_FIELDS
 0000:3D43       ANI_ICONZONE
 0000:3E09       ANI_MOONS
 0000:3C44       ANI_RAYCAST
 0000:398E       ANI_SPRITES
 0000:3950       ANI_WIND
 0FC2:298E       ARMOR_CLASS_MASK
 0FC2:2AAC       ARMOR_PROT
 0000:14F3       ASKCHARA
 0000:1542       ASKDIR
 0000:19A9       ASKINT
 0000:1465       ASKLETTER
 0000:193C       ASKY_N
 0000:6795       ATTACK_RANGED
 0000:A2CA       CHECKJINX
 0000:3013       CMDDIR_DOWN
 0000:3132       CMDDIR_LEFT
 0000:324E       CMDDIR_RIGHT
 0000:2F15       CMDDIR_UP
 0000:6933       CMD_ATTACK
 0000:46D0       CMD_BOARD
 0000:74EE       CMD_CAST
 0000:4A5C       CMD_DESCEND
 0000:4436       CMD_ENTER
 0000:7A8D       CMD_FIRE
 0000:79B0       CMD_GET
 0000:91E4       CMD_HOLEUP
 0000:7BE9       CMD_IGNITE
 0000:488E       CMD_JIMMY
 0000:490D       CMD_KLIMB
 0000:7C22       CMD_LOCATE
 0000:933C       CMD_MIX
 0000:76F4       CMD_NEWORDER
 0000:47E9       CMD_OPEN
 0000:CC03       CMD_PEER
 0000:75CD       CMD_QUIT
 0000:7CF5       CMD_READY
 0000:9901       CMD_SEARCH
 0000:AEC4       CMD_TALK
 0000:09F2       CMD_USE
 0000:776D       CMD_VOLUME
 0000:7DF6       CMD_WEAR
 0000:45DC       CMD_X_IT
 0000:477E       CMD_YELL
 0000:54C7       CMD_ZTATS
 0FC2:9740       Combat
 0FC2:2B5E       COMBAT_MAPS
 0000:6546       COM_CHECKHITABLE
 0000:644F       COM_DODAMAGE
 0000:6079       COM_GETFIGHTERID
 0000:610F       COM_MAIN
 0000:0A56       CONSOLE
 0FC2:0B10       CRYPTS
 0FC2:973A       CurMode
 0FC2:072A       cursor_rate
 0000:01E1       C_01E1
 0000:0311       C_0311
 0000:044C       C_044C
 0000:0487       C_0487
 0000:04C0       C_04C0
 0000:0501       C_0501
 0000:0553       C_0553
 0000:05C2       C_058C
 0000:0604       C_05CE
 0000:0C45       C_09D9
 0000:0CC4       C_0A58
 0000:0CF7       C_0A8B
 0000:0D3B       C_0ACF
 0000:0D6A       C_0AFE
 0000:111D       C_0EB1
 0000:1369       C_10FD
 0000:17B7       C_1513
 0000:1B21       C_1814
 0000:1B2A       C_181D
 0000:1B3C       C_182F
 0000:1B5C       C_184F
 0000:1BAF       C_18A2
 0000:1F72       C_1C21
 0000:2412       C_20C1
 0000:248C       C_213B
 0000:26EA       C_2399
 0000:27ED       C_249C
 0000:2868       C_2517
 0000:28F0       C_259F
 0000:2975       C_2624
 0000:2A07       C_26B6
 0000:2AD0       C_2747
 0000:2B62       C_27D9
 0000:2B93       C_280A
 0000:2BC2       C_2839
 0000:2C1A       C_2891
 0000:2C72       C_28E9
 0000:2CCA       C_2941
 0000:2D22       C_2999
 0000:2D78       C_29EF
 0000:2DC1       C_2A38
 0000:2DE3       C_2A5A
 0000:2E1A       C_2A91
 0000:2EA2       C_2B19
 0000:2FAE       C_2C25
 0000:30CD       C_2D44
 0000:31D8       C_2E4F
 0000:3307       C_2F7E
 0000:3326       C_2F9D
 0000:3399       C_3010
 0000:33AE       C_3025
 0000:3498       C_310F
 0000:357D       C_31F4
 0000:38C6       C_353D
 0000:3A50       C_36C7
 0000:3AF8       C_376F
 0000:3CE9       C_3960
 0000:3DD8       C_3A4F
 0000:3EBE       C_3B35
 0000:3F0C       C_3B83
 0000:3FDD       C_3C54
 0000:4683       C_4206
 0000:47B3       C_431D
 0000:4C09       C_45B5
 0000:4C9D       C_4649
 0000:4CDD       C_4689
 0000:5516       C_4E94
 0000:567A       C_4FF8
 0000:56B8       C_5036
 0000:56E4       C_5062
 0000:5829       C_51A7
 0000:59E2       C_535B
 0000:5A36       C_53AF
 0000:5ACA       C_5443
 0000:5B87       C_5500
 0000:5BF0       C_5569
 0000:5CD2       C_564B
 0000:5D16       C_568F
 0000:5D5A       C_56D3
 0000:5EF5       C_5851
 0000:60A8       C_5A04
 0000:63B8       C_5D14
 0000:6875       C_61D1
 0000:6A11       C_636D
 0000:6A58       C_63B4
 0000:6AAD       C_6409
 0000:6ACC       C_6428
 0000:6AEB       C_6447
 0000:6B0A       C_6466
 0000:76B9       C_6FF9
 0000:778E       C_70CE
 0000:77B1       C_70F1
 0000:7810       C_7150
 0000:78F3       C_722F
 0000:79FB       C_7337
 0000:7A7C       C_73B8
 0000:7EE5       C_7821
 0000:7F33       C_786F
 0000:7F95       C_78D1
 0000:7FDC       C_7918
 0000:8026       C_7962
 0000:808D       C_79C9
 0000:80D9       C_7A15
 0000:81A7       C_7AE3
 0000:824D       C_7B89
 0000:8273       C_7BAF
 0000:8299       C_7BD5
 0000:82C1       C_7BFD
 0000:82E9       C_7C25
 0000:8329       C_7C65
 0000:8414       C_7D50
 0000:8456       C_7D92
 0000:8480       C_7DBC
 0000:84C2       C_7DFE
 0000:8542       C_7E7E
 0000:869B       C_7FD7
 0000:86C1       C_7FFD
 0000:88D8       C_8214
 0000:88EC       C_8228
 0000:8947       C_8283
 0000:8A3E       C_837A
 0000:8E40       C_8743
 0000:8EDF       C_87E2
 0000:8FE5       C_88E8
 0000:901B       C_891E
 0000:905C       C_895F
 0000:909C       C_899F
 0000:90BA       C_89BD
 0000:90D8       C_89DB
 0000:9153       C_8A1F
 0000:947F       C_8D4B
 0000:94A1       C_8D6D
 0000:94DE       C_8DAA
 0000:9514       C_8DE0
 0000:954A       C_8E16
 0000:957A       C_8E46
 0000:95DC       C_8E77
 0000:960D       C_8EA8
 0000:967E       C_8EE8
 0000:96B7       C_8F21
 0000:96E7       C_8F51
 0000:9717       C_8F81
 0000:9747       C_8FB1
 0000:97BD       C_9027
 0000:980C       C_9076
 0000:988C       C_90C5
 0000:9B6C       C_93A5
 0000:9BDB       C_9414
 0000:9D71       C_95AA
 0000:9E4A       C_9683
 0000:9E80       C_96B9
 0000:9F2B       C_9764
 0000:A0AB       C_98E4
 0000:A208       C_9A41
 0000:A332       C_9B6B
 0000:A36D       C_9BA6
 0000:A3AC       C_9BE5
 0000:A41D       C_9C56
 0000:A483       C_9CBC
 0000:A742       C_9F7B
 0000:A934       C_A163
 0000:A9FE       C_A22D
 0000:AC14       C_A443
 0000:AC50       C_A47F
 0000:AC85       C_A4B4
 0000:AE57       C_A686
 0000:AFC3       C_A7F2
 0000:B013       C_A842
 0000:B11B       C_A94A
 0000:B1FA       C_AA29
 0000:B2D9       C_AB08
 0000:B3B6       C_ABE5
 0000:B3F4       C_AC23
 0000:B53B       C_AD6A
 0000:B5C0       C_ADEF
 0000:B612       C_AE41
 0000:B707       C_AF36
 0000:B786       C_AFB5
 0000:B8BA       C_B0E9
 0000:B9EE       C_B21D
 0000:BA2F       C_B25E
 0000:BA6D       C_B29C
 0000:BAAB       C_B2DA
 0000:BAEC       C_B31B
 0000:BB2D       C_B35C
 0000:BB7F       C_B3AE
 0000:BBB4       C_B3E3
 0000:BBE9       C_B418
 0000:BC4B       C_B47A
 0000:BCB0       C_B4DF
 0000:BDED       C_B61C
 0000:BE48       C_B677
 0000:BF01       C_B730
 0000:BF41       C_B770
 0000:BF66       C_B795
 0000:C034       C_B863
 0000:C110       C_B93F
 0000:C183       C_B9B2
 0000:CBD4       C_C403
 0000:CC2B       C_C445
 0000:CC30       C_C44A
 0000:CC35       C_C44F
 0000:CC3A       C_C454
 0000:CD02       C_C51C
 0000:D503       C_CD1D
 0000:D566       C_CD80
 0000:D6A4       C_CEBE
 0000:D953       C_D16D
 0000:D9B6       C_D1D0
 0000:DADE       C_D2F8
 0000:DFBC       C_D7D6
 0000:E1EB       C_DA05
 0000:E224       C_DA3E
 0000:E25F       C_DA79
 0000:E288       C_DAA2
 0000:E30F       C_DB29
 0000:E379       C_DB93
 0000:E3DB       C_DBF5
 0000:E50A       C_DD24
 0000:E61B       C_DE35
 0000:E9E2       C_E1FC
 0000:EA04       C_E21E
 0000:EB64       C_E37E
 0000:EBB8       C_E3D2
 0000:EBEE       C_E408
 0000:EC28       C_E442
 0000:EC7E       C_E498
 0000:ECA9       C_E4C3
 0000:ED81       C_E59B
 0000:EEC5       C_E6DF
 0000:985B       C_MBOW
 0000:95AB       C_RING
 0000:964D       C_WAND
 0000:8B96       DNG_MAIN
 0FC2:343A       DOOR_Y0
 0FC2:343E       DOOR_Y0P
 0FC2:3442       DOOR_Y1
 0FC2:3446       DOOR_Y1P
 0FC2:9896       DoublePace
 0000:65CA       DRAWBLOW
 0000:107A       DSPL_GOLD
 0000:0F63       DSPL_STATS
 0FC2:0AF0       DUNGEONS
 0FC2:00EE       D_00EE
 0FC2:0100       D_0100
 0FC2:010E       D_010E
 0FC2:0284       D_0284
 0FC2:04E4       D_0434
 0FC2:0A0C       D_07F8
 0FC2:0A20       D_080C
 0FC2:0A24       D_0810
 0FC2:0A28       D_0814
 0FC2:0A30       D_081C
 0FC2:0A94       D_0844
 0FC2:0AC2       D_0864
 0FC2:0B46       D_08CE
 0FC2:0B48       D_08D0
 0FC2:0B64       D_08EC
 0FC2:0B6C       D_08F4
 0FC2:0B74       D_08FC
 0FC2:0B7C       D_0904
 0FC2:0E52       D_0BDA
 0FC2:0E68       D_0BF0
 0FC2:0E76       D_0BFE
 0FC2:1892       D_161A
 0FC2:1898       D_1620
 0FC2:18A8       D_1630
 0FC2:18CC       D_1654
 0FC2:18CE       D_1656
 0FC2:18DC       D_1664
 0FC2:18DD       D_1665
 0FC2:18DE       D_1666
 0FC2:18E0       D_1668
 0FC2:18E2       D_166A
 0FC2:18E4       D_166C
 0FC2:1BFC       D_17FA
 0FC2:1BFE       D_17FC
 0FC2:1C00       D_17FE
 0FC2:1E94       D_199A
 0FC2:1E9E       D_19A4
 0FC2:1EBA       D_19C0
 0FC2:2622       D_1FD8
 0FC2:26D6       D_208C
 0FC2:27B8       D_216E
 0FC2:283E       D_21F4
 0FC2:2912       D_22C8
 0FC2:2A50       D_2406
 0FC2:2A74       D_242A
 0FC2:2BBA       D_256E
 0FC2:2BDA       D_258E
 0FC2:2C66       D_261A
 0FC2:2D04       D_26B8
 0FC2:2DCA       D_277E
 0FC2:2DF2       D_27A6
 0FC2:2F92       D_2904
 0FC2:2FAE       D_2920
 0FC2:3118       D_2A7A
 0FC2:312E       D_2A90
 0FC2:3250       D_2BB2
 0FC2:3372       D_2CD4
 0FC2:33F2       D_2D54
 0FC2:344A       D_2DAC
 0FC2:344E       D_2DB0
 0FC2:3452       D_2DB4
 0FC2:3456       D_2DB8
 0FC2:345A       D_2DBC
 0FC2:345E       D_2DC0
 0FC2:3462       D_2DC4
 0FC2:3466       D_2DC8
 0FC2:3472       D_2DD4
 0FC2:3476       D_2DD8
 0FC2:347A       D_2DDC
 0FC2:347E       D_2DE0
 0FC2:3482       D_2DE4
 0FC2:3486       D_2DE8
 0FC2:348A       D_2DEC
 0FC2:348C       D_2DEE
 0FC2:34A2       D_2E04
 0FC2:350C       D_2E6E
 0FC2:351C       D_2E7E
 0FC2:3610       D_2F72
 0FC2:3690       D_2FF2
 0FC2:45AA       D_3F0C
 0FC2:480E       D_4170
 0FC2:481E       D_4180
 0FC2:4826       D_4188
 0FC2:482E       D_4190
 0FC2:4D40       D_46A2
 0FC2:4D4C       D_46AE
 0FC2:4D58       D_46BA
 0FC2:4D70       D_46D2
 0FC2:4D90       D_46F2
 0FC2:4DA0       D_4702
 0FC2:524C       D_4BAE
 0FC2:5256       D_4BB8
 0FC2:5262       D_4BC4
 0FC2:527A       D_4BDC
 0FC2:528A       D_4BEC
 0FC2:529A       D_4BFC
 0FC2:5834       D_5196
 0FC2:5844       D_51A6
 0FC2:584C       D_51AE
 0FC2:5854       D_51B6
 0FC2:5858       D_51BA
 0FC2:585C       D_51BE
 0FC2:5B22       D_5484
 0FC2:5B32       D_5494
 0FC2:5B3A       D_549C
 0FC2:5B42       D_54A4
 0FC2:5B4A       D_54AC
 0FC2:5B58       D_54BA
 0FC2:5B66       D_54C8
 0FC2:5D10       D_5672
 0FC2:5D14       D_5676
 0FC2:5D18       D_567A
 0FC2:5E26       D_5788
 0FC2:5E36       D_5798
 0FC2:5E4A       D_57AC
 0FC2:6586       D_5EE8
 0FC2:6596       D_5EF8
 0FC2:65A2       D_5F04
 0FC2:65AE       D_5F10
 0FC2:65BA       D_5F1C
 0FC2:65C6       D_5F28
 0FC2:65D2       D_5F34
 0FC2:65E0       D_5F42
 0FC2:6A0A       D_636C
 0FC2:6A1A       D_637C
 0FC2:6A24       D_6386
 0FC2:6A2E       D_6390
 0FC2:768E       D_6FF0
 0FC2:76C6       D_7028
 0FC2:8CF6       D_8362
 0FC2:9A66       D_8742
 0FC2:9410       D_9140
 0FC2:9411       D_9141
 0FC2:9412       D_9142
 0FC2:960A       D_933A
 0FC2:970A       D_943A
 0FC2:970E       D_943E
 0FC2:9710       D_9440
 0FC2:9715       D_9445
 0FC2:9716       D_9446
 0FC2:9718       D_9448
 0FC2:971A       D_944A
 0FC2:9722       D_9452
 0FC2:9728       D_9458
 0FC2:973C       D_946C
 0FC2:986C       D_959C
 0FC2:9875       D_95A5
 0FC2:9882       D_95B2
 0FC2:9898       D_95C8
 0FC2:989C       D_95CC
 0FC2:989E       D_95CE
 0FC2:99BE       D_96EE
 0FC2:99C4       D_96F4
 0FC2:99C8       D_96F8
 0FC2:99C9       D_96F9
 0FC2:9A42       D_9772
 0FC2:2518       D_ARMORS
 0FC2:261A       D_ASSORTED
 0FC2:254A       D_CLASSES
 0FC2:24BE       D_CREA
 0FC2:25AE       D_LOCATIONS
 0FC2:261C       D_PRINCIPLES
 0FC2:256A       D_REAGENTS
 0FC2:24AC       D_SEA_CREA
 0FC2:257A       D_SPELLS
 0FC2:260A       D_VIRTUES
 0FC2:24F6       D_WEAPONS
 0FC2:2528       D_WEA_CODES
 0000:DF8E       ENC_INN
 0FC2:2A1C       ENEMY_HP
 0000:42DB       ENTER_DUNGEON
 0000:F12D       ENTER_ORACLE
 0000:EF12       ENTER_SHRINE
 0000:4322       ENTER_TOWNE
 0FC2:9A4F       equip_flags
 0000:4392       EXP_CLEAR_PARTYNPC
 0000:43D7       EXP_ENTER_ABYSS
 0000:421D       EXP_LOAD_DUNGEON
 0000:4580       EXP_ONFOOT
 0000:4665       EXP_RESTORE_HORSE
 0000:42BC       EXP_SET_DUNGEON
 0FC2:0078       far_psp
 0FC2:9800       Fighters
 0FC2:9868       File_DNG
 0FC2:99C0       File_MAP
 0FC2:99C6       File_TLK
 0000:15F7       FOOD_DEC
 0000:2592       GRA_09
 0000:2597       GRA_10
 0000:259C       GRA_11
 0000:25BD       GRA_13
 0000:260C       Gra_animFlag
 0000:2607       Gra_animFlow
 0000:2581       GRA_CR
 0000:2611       GRA_PUTCHAR
 0000:13A1       HITCHARA
 0FC2:987E       hit_tile
 0FC2:9880       hit_x
 0FC2:9881       hit_y
 0FC2:1AD2       HORSE_X
 0FC2:1AD4       HORSE_Y
 0000:0C1D       HP_DEC
 0000:0BF5       HP_INC
 0000:10BA       ISCHARAALIVE
 0000:10EE       ISCHARACONSCIOUS
 0000:60CC       ISCOMBATENDED
 0000:0C83       KARMA_DEC
 0000:0C64       KARMA_INC
 0FC2:8D18       KEYWORDS
 0FC2:8D50       KEYWORDS_RESPONSE
 0FC2:346A       LADDER_X0
 0FC2:346E       LADDER_X1
 0FC2:342A       LDOOR_X0
 0FC2:342E       LDOOR_X1
 0000:0A99       LOAD
 0000:41B9       LOAD_TOWNE
 0FC2:9F66       Lone_NPC
 0000:0115       low_clean
 0000:0147       low_gra
 0000:0012       low_init
 0FC2:8CB6       MANTRAS
 0000:16B1       MP_DRAIN
 0000:1622       MP_RECOVER
 0FC2:0036       MSG_DSKERR
 0FC2:005E       MSG_SYSERR
 0000:5EBB       NPC_MESM_OUT
 0000:59DD       NPC_MESM_TOWN
 0000:5D99       NPC_MOVE_OUT
 0000:5915       NPC_MOVE_TOWN
 0000:5EC0       NPC_TURN
 0FC2:0B16       ORACLES
 0FC2:9414       Party
 0000:1828       PARTY_DAMAGE
 0000:18D3       PARTY_DRAIN
 0000:1FA4       PARTY_MAINT
 0FC2:9A51       patch_tandy
 0FC2:9870       pCharset
 0000:CA0C       PER_DUNG
 0000:C1C0       PER_WORLD
 0FC2:0A0E       PKARMAS
 0000:9998       POISON
 0000:9F53       PROJ_ATTACK
 0FC2:9724       pShapes
 0000:99D0       RANDOM_ENCOUNTER
 0FC2:2AB4       RANGE_WEAP
 0FC2:3432       RDOOR_X0
 0FC2:3436       RDOOR_X1
 0000:7CA0       READY_WEAR_CANT
 0000:0D1D       SAFEMODULO
 0000:0B15       SAVE
 0FC2:9A56       seed_0
 0FC2:9A5A       seed_1
 0FC2:9A5E       seed_2
 0FC2:9A62       seed_3
 0000:0BA2       SHAKEFX
 0FC2:9712       ship_x
 0FC2:9713       ship_y
 0000:DC94       SHP_ARMOR
 0000:E86E       SHP_FOOD
 0000:DE04       SHP_GUILD
 0000:D108       SHP_HAWKWIND
 0000:E433       SHP_HEALER
 0000:DD7C       SHP_HORSE
 0000:E0C3       SHP_INN
 0000:E795       SHP_PUB
 0000:D2DC       SHP_REAGENT
 0000:D86B       SHP_WEAPON
 0FC2:0B00       SHRINES
 0000:F3A3       SHR_KEYWORDS
 0000:2692       sizzleCharset
 0000:2620       sizzleShapes
 0000:9961       SLEEP
 0FC2:9A4C       speed_info
 0FC2:973E       spell_cnt
 0FC2:9874       spell_sta
 0000:6BFC       SPL_AWAKEN
 0000:6C4E       SPL_BLINK
 0000:6D3F       SPL_CURE
 0000:6D7E       SPL_DISPEL
 0000:6F26       SPL_ENERGY
 0000:707B       SPL_FIREBALL
 0000:7089       SPL_GATE
 0000:70E4       SPL_HEAL
 0000:7126       SPL_ICEBALL
 0000:7134       SPL_JINX
 0000:714D       SPL_KILL
 0000:715B       SPL_LIGHT
 0000:717F       SPL_MAGICMISL
 0000:718D       SPL_NEGATE
 0000:71A6       SPL_OPEN
 0000:71DA       SPL_PROTECTION
 0000:71F3       SPL_QUICKNESS
 0000:720C       SPL_RESURRECT
 0000:7252       SPL_SLEEP
 0000:729C       SPL_TREMOR
 0000:7315       SPL_UNDEAD
 0000:7356       SPL_VIEW
 0000:7367       SPL_WINDS
 0000:73C6       SPL_X_IT
 0000:73E1       SPL_Y_UP
 0000:7465       SPL_Z_DOWN
 0FC2:1AD6       TALK_FILES
 0000:F3F7       TALK_ORACLE
 0FC2:989A       tile_back
 0FC2:9714       tile_cur
 0FC2:986E       tile_east
 0FC2:970C       tile_forward
 0FC2:987A       tile_north
 0FC2:9893       tile_south
 0FC2:9892       tile_west
 0000:AB73       TLK_GIVE
 0000:AA7C       TLK_HEALTH
 0000:AA6A       TLK_JOB
 0000:AA8E       TLK_JOIN
 0000:AA51       TLK_LOOK
 0000:AA32       TLK_NAME
 0000:AA16       TLK_SPECIAL1
 0000:AA24       TLK_SPECIAL2
 0FC2:0A38       TOWNE_CASTLE_VILLAGE
 0000:66B6       TRYDAMAGE
 0FC2:9878       txt_X
 0FC2:9894       txt_Y
 0000:4151       T_CALLBACK
 0000:5640       U4_ABS
 0000:16E9       U4_GETS
 0000:0F0B       U4_PUTC
 0000:0E6F       U4_PUTL
 0000:0DA4       U4_PUTS
 0000:5659       U4_SIGN
 0000:1A7E       U_RAND_A
 0000:1AAF       u_rand_b
 0000:058C       U_RING
 0000:07E4       U_WAND
 0FC2:8CC6       VISIONS
 0FC2:3412       WALL_X0
 0FC2:3418       WALL_X1
 0FC2:341E       WALL_Y0
 0FC2:3424       WALL_Y1
 0FC2:297E       WEAP_CLASS_MASK
 0FC2:2A9A       WEAP_DAM
 0FC2:99C2       WindDir
 0FC2:8D06       WORDS_PASSAGE
 0000:2D4C       W_BLOCKED
 0000:1405       W_CANT_T
 0000:1427       W_DISABLED
 0000:2D67       W_DRIFTONLY
 0000:6A3D       W_FAILED
 0000:6641       W_MISSED
 0000:1457       W_NONELEFT
 0000:1416       W_NOTHERE
 0000:1438       W_ONLYONFOOT
 0000:0BE7       W_PASS
 0000:8011       W_SAMEEXIT
 0000:1449       W_SLOWPROGRESS
 0000:13F4       W_WHAT
 0000:0BC1       XP_INC
 0000:4F4C       ZTATS_ARMOR
 0000:5343       ZTATS_BROWSE
 0000:4C2A       ZTATS_CENTERED
 0000:4FDB       ZTATS_EQUIP
 0000:5091       ZTATS_ITEMS
 0000:52C4       ZTATS_MIXTURES
 0000:5249       ZTATS_REAGENTS
 0000:4E86       ZTATS_WEAP
 0000:F499       _atol
 0000:2345       _dalloc
 0000:23FC       _dclose
 0000:2374       _dfree
 0000:239A       _dlseek
 0000:2384       _dopen
 0000:23B8       _dread
 0000:23DC       _dwrite
 0FC2:940C       _edata
 0FC2:A970       _end
 0FC2:9314       _environ
 0FC2:92F0       _errno
 0000:F5F5       _exit
 0000:2552       _Gra_00
 0000:2557       _Gra_01
 0000:255C       _Gra_02
 0000:2561       _Gra_03
 0000:256C       _Gra_04
 0000:2577       _Gra_05
 0000:25CC       _Gra_16
 0000:25D1       _Gra_17
 0000:25E8       _Gra_18
 0000:25ED       _Gra_19
 0000:25F8       _Gra_animSpit
 0000:2602       _Gra_clrscr
 0000:257C       _Gra_dot
 0000:25C2       _Gra_dot_OR
 0000:25C7       _Gra_dot_XOR
 0000:25FD       _Gra_init
 0000:24AB       _Gra_line
 0000:F6CF       _longjmp
 0000:1C2B       _main
 0000:F660       _memcpy
 0000:F6B2       _setjmp
 0000:2098       _sound
 0FC2:076A       _SoundFlag
 0000:F6F0       _strcat
 0000:F721       _strchr
 0000:F74B       _strcpy
 0000:F770       _strlen
 0000:F78B       _strnicmp
 0000:19DA       _u_delay
 0000:1B11       _u_kbflush
 0000:1AD2       _u_kbhit
 0000:1B01       _u_kbread
 0FC2:92D6       __abrkp
 0FC2:9286       __abrktb
 0FC2:92D6       __abrktbe
 0000:9876  Abs  __acrtmsg
 0000:9876  Abs  __acrtused
 0FC2:92E4       __aintdiv
 0000:F53B       __amsg_exit
 0000:FA39       __aNldiv
 0000:FADC       __aNlmul
 0000:FB08       __aNlrem
 0000:FBAE       __aNuldiv
 0000:FADC       __aNulmul
 0000:FC13       __aNulshr
 0FC2:9282       __asizds
 0000:F49C       __astart
 0FC2:9284       __atopsp
 0000:F7E2       __catox
 0FC2:9316       __child
 0000:F546       __cinit
 0000:F538       __cintDIV
 0FC2:9318       __csigtab
 0000:F638       __ctermsub
 0FC2:92FA       __doserrno
 0FC2:92F8       __dosvermajor
 0FC2:92F9       __dosverminor
 0000:F60C       __exit
 0FC2:92E8       __fac
 0FC2:9324       __fpinit
 0000:F9F7       __myalloc
 0000:F853       __NMSG_TEXT
 0000:F883       __NMSG_WRITE
 0000:F837       __nullcheck
 0FC2:92FA       __oserr
 0FC2:92FC       __osfile
 0FC2:92F8       __osmajor
 0FC2:92F9       __osminor
 0FC2:92F6       __psp
 0FC2:92F4       __pspadr
 0000:F8AC       __setargv
 0000:F991       __setenvp
 0FC2:92F2       __umaskval
 0FC2:9310       ___argc
 0FC2:9312       ___argv

  Address         Publics by Value

 0000:0012       low_init
 0000:0115       low_clean
 0000:0147       low_gra
 0000:01E1       C_01E1
 0000:0311       C_0311
 0000:044C       C_044C
 0000:0487       C_0487
 0000:04C0       C_04C0
 0000:0501       C_0501
 0000:0553       C_0553
 0000:058C       U_RING
 0000:05C2       C_058C
 0000:0604       C_05CE
 0000:07E4       U_WAND
 0000:09F2       CMD_USE
 0000:0A56       CONSOLE
 0000:0A99       LOAD
 0000:0B15       SAVE
 0000:0BA2       SHAKEFX
 0000:0BC1       XP_INC
 0000:0BE7       W_PASS
 0000:0BF5       HP_INC
 0000:0C1D       HP_DEC
 0000:0C45       C_09D9
 0000:0C64       KARMA_INC
 0000:0C83       KARMA_DEC
 0000:0CC4       C_0A58
 0000:0CF7       C_0A8B
 0000:0D1D       SAFEMODULO
 0000:0D3B       C_0ACF
 0000:0D6A       C_0AFE
 0000:0DA4       U4_PUTS
 0000:0E6F       U4_PUTL
 0000:0F0B       U4_PUTC
 0000:0F63       DSPL_STATS
 0000:107A       DSPL_GOLD
 0000:10BA       ISCHARAALIVE
 0000:10EE       ISCHARACONSCIOUS
 0000:111D       C_0EB1
 0000:1369       C_10FD
 0000:13A1       HITCHARA
 0000:13F4       W_WHAT
 0000:1405       W_CANT_T
 0000:1416       W_NOTHERE
 0000:1427       W_DISABLED
 0000:1438       W_ONLYONFOOT
 0000:1449       W_SLOWPROGRESS
 0000:1457       W_NONELEFT
 0000:1465       ASKLETTER
 0000:14F3       ASKCHARA
 0000:1542       ASKDIR
 0000:15F7       FOOD_DEC
 0000:1622       MP_RECOVER
 0000:16B1       MP_DRAIN
 0000:16E9       U4_GETS
 0000:17B7       C_1513
 0000:1828       PARTY_DAMAGE
 0000:18D3       PARTY_DRAIN
 0000:193C       ASKY_N
 0000:19A9       ASKINT
 0000:19DA       _u_delay
 0000:1A7E       U_RAND_A
 0000:1AAF       u_rand_b
 0000:1AD2       _u_kbhit
 0000:1B01       _u_kbread
 0000:1B11       _u_kbflush
 0000:1B21       C_1814
 0000:1B2A       C_181D
 0000:1B3C       C_182F
 0000:1B5C       C_184F
 0000:1BAF       C_18A2
 0000:1C2B       _main
 0000:1F72       C_1C21
 0000:1FA4       PARTY_MAINT
 0000:2098       _sound
 0000:2345       _dalloc
 0000:2374       _dfree
 0000:2384       _dopen
 0000:239A       _dlseek
 0000:23B8       _dread
 0000:23DC       _dwrite
 0000:23FC       _dclose
 0000:2412       C_20C1
 0000:248C       C_213B
 0000:24AB       _Gra_line
 0000:2552       _Gra_00
 0000:2557       _Gra_01
 0000:255C       _Gra_02
 0000:2561       _Gra_03
 0000:256C       _Gra_04
 0000:2577       _Gra_05
 0000:257C       _Gra_dot
 0000:2581       GRA_CR
 0000:2592       GRA_09
 0000:2597       GRA_10
 0000:259C       GRA_11
 0000:25BD       GRA_13
 0000:25C2       _Gra_dot_OR
 0000:25C7       _Gra_dot_XOR
 0000:25CC       _Gra_16
 0000:25D1       _Gra_17
 0000:25E8       _Gra_18
 0000:25ED       _Gra_19
 0000:25F8       _Gra_animSpit
 0000:25FD       _Gra_init
 0000:2602       _Gra_clrscr
 0000:2607       Gra_animFlow
 0000:260C       Gra_animFlag
 0000:2611       GRA_PUTCHAR
 0000:2620       sizzleShapes
 0000:2692       sizzleCharset
 0000:26EA       C_2399
 0000:27ED       C_249C
 0000:2868       C_2517
 0000:28F0       C_259F
 0000:2975       C_2624
 0000:2A07       C_26B6
 0000:2AD0       C_2747
 0000:2B62       C_27D9
 0000:2B93       C_280A
 0000:2BC2       C_2839
 0000:2C1A       C_2891
 0000:2C72       C_28E9
 0000:2CCA       C_2941
 0000:2D22       C_2999
 0000:2D4C       W_BLOCKED
 0000:2D67       W_DRIFTONLY
 0000:2D78       C_29EF
 0000:2DC1       C_2A38
 0000:2DE3       C_2A5A
 0000:2E1A       C_2A91
 0000:2EA2       C_2B19
 0000:2F15       CMDDIR_UP
 0000:2FAE       C_2C25
 0000:3013       CMDDIR_DOWN
 0000:30CD       C_2D44
 0000:3132       CMDDIR_LEFT
 0000:31D8       C_2E4F
 0000:324E       CMDDIR_RIGHT
 0000:3307       C_2F7E
 0000:3326       C_2F9D
 0000:3399       C_3010
 0000:33AE       C_3025
 0000:3498       C_310F
 0000:357D       C_31F4
 0000:3873       ANI_FIELDS
 0000:38C6       C_353D
 0000:3950       ANI_WIND
 0000:398E       ANI_SPRITES
 0000:3A50       C_36C7
 0000:3AF8       C_376F
 0000:3C44       ANI_RAYCAST
 0000:3CE9       C_3960
 0000:3D43       ANI_ICONZONE
 0000:3DD8       C_3A4F
 0000:3E09       ANI_MOONS
 0000:3EBE       C_3B35
 0000:3F0C       C_3B83
 0000:3F91       ANI_BALLOON
 0000:3FDD       C_3C54
 0000:4151       T_CALLBACK
 0000:41B9       LOAD_TOWNE
 0000:421D       EXP_LOAD_DUNGEON
 0000:42BC       EXP_SET_DUNGEON
 0000:42DB       ENTER_DUNGEON
 0000:4322       ENTER_TOWNE
 0000:4392       EXP_CLEAR_PARTYNPC
 0000:43D7       EXP_ENTER_ABYSS
 0000:4436       CMD_ENTER
 0000:4580       EXP_ONFOOT
 0000:45DC       CMD_X_IT
 0000:4665       EXP_RESTORE_HORSE
 0000:4683       C_4206
 0000:46D0       CMD_BOARD
 0000:477E       CMD_YELL
 0000:47B3       C_431D
 0000:47E9       CMD_OPEN
 0000:488E       CMD_JIMMY
 0000:490D       CMD_KLIMB
 0000:4A5C       CMD_DESCEND
 0000:4C09       C_45B5
 0000:4C2A       ZTATS_CENTERED
 0000:4C9D       C_4649
 0000:4CDD       C_4689
 0000:4E86       ZTATS_WEAP
 0000:4F4C       ZTATS_ARMOR
 0000:4FDB       ZTATS_EQUIP
 0000:5091       ZTATS_ITEMS
 0000:5249       ZTATS_REAGENTS
 0000:52C4       ZTATS_MIXTURES
 0000:5343       ZTATS_BROWSE
 0000:54C7       CMD_ZTATS
 0000:5516       C_4E94
 0000:5640       U4_ABS
 0000:5659       U4_SIGN
 0000:567A       C_4FF8
 0000:56B8       C_5036
 0000:56E4       C_5062
 0000:5829       C_51A7
 0000:5915       NPC_MOVE_TOWN
 0000:59DD       NPC_MESM_TOWN
 0000:59E2       C_535B
 0000:5A36       C_53AF
 0000:5ACA       C_5443
 0000:5B87       C_5500
 0000:5BF0       C_5569
 0000:5CD2       C_564B
 0000:5D16       C_568F
 0000:5D5A       C_56D3
 0000:5D99       NPC_MOVE_OUT
 0000:5EBB       NPC_MESM_OUT
 0000:5EC0       NPC_TURN
 0000:5EF5       C_5851
 0000:6079       COM_GETFIGHTERID
 0000:60A8       C_5A04
 0000:60CC       ISCOMBATENDED
 0000:610F       COM_MAIN
 0000:63B8       C_5D14
 0000:644F       COM_DODAMAGE
 0000:6546       COM_CHECKHITABLE
 0000:65CA       DRAWBLOW
 0000:6641       W_MISSED
 0000:66B6       TRYDAMAGE
 0000:6795       ATTACK_RANGED
 0000:6875       C_61D1
 0000:6933       CMD_ATTACK
 0000:6A11       C_636D
 0000:6A3D       W_FAILED
 0000:6A58       C_63B4
 0000:6AAD       C_6409
 0000:6ACC       C_6428
 0000:6AEB       C_6447
 0000:6B0A       C_6466
 0000:6BFC       SPL_AWAKEN
 0000:6C4E       SPL_BLINK
 0000:6D3F       SPL_CURE
 0000:6D7E       SPL_DISPEL
 0000:6F26       SPL_ENERGY
 0000:707B       SPL_FIREBALL
 0000:7089       SPL_GATE
 0000:70E4       SPL_HEAL
 0000:7126       SPL_ICEBALL
 0000:7134       SPL_JINX
 0000:714D       SPL_KILL
 0000:715B       SPL_LIGHT
 0000:717F       SPL_MAGICMISL
 0000:718D       SPL_NEGATE
 0000:71A6       SPL_OPEN
 0000:71DA       SPL_PROTECTION
 0000:71F3       SPL_QUICKNESS
 0000:720C       SPL_RESURRECT
 0000:7252       SPL_SLEEP
 0000:729C       SPL_TREMOR
 0000:7315       SPL_UNDEAD
 0000:7356       SPL_VIEW
 0000:7367       SPL_WINDS
 0000:73C6       SPL_X_IT
 0000:73E1       SPL_Y_UP
 0000:7465       SPL_Z_DOWN
 0000:74EE       CMD_CAST
 0000:75CD       CMD_QUIT
 0000:76B9       C_6FF9
 0000:76F4       CMD_NEWORDER
 0000:776D       CMD_VOLUME
 0000:778E       C_70CE
 0000:77B1       C_70F1
 0000:7810       C_7150
 0000:78F3       C_722F
 0000:79B0       CMD_GET
 0000:79FB       C_7337
 0000:7A7C       C_73B8
 0000:7A8D       CMD_FIRE
 0000:7BE9       CMD_IGNITE
 0000:7C22       CMD_LOCATE
 0000:7CA0       READY_WEAR_CANT
 0000:7CF5       CMD_READY
 0000:7DF6       CMD_WEAR
 0000:7EE5       C_7821
 0000:7F33       C_786F
 0000:7F95       C_78D1
 0000:7FDC       C_7918
 0000:8011       W_SAMEEXIT
 0000:8026       C_7962
 0000:808D       C_79C9
 0000:80D9       C_7A15
 0000:81A7       C_7AE3
 0000:824D       C_7B89
 0000:8273       C_7BAF
 0000:8299       C_7BD5
 0000:82C1       C_7BFD
 0000:82E9       C_7C25
 0000:8329       C_7C65
 0000:8414       C_7D50
 0000:8456       C_7D92
 0000:8480       C_7DBC
 0000:84C2       C_7DFE
 0000:8542       C_7E7E
 0000:869B       C_7FD7
 0000:86C1       C_7FFD
 0000:88D8       C_8214
 0000:88EC       C_8228
 0000:8947       C_8283
 0000:8A3E       C_837A
 0000:8B96       DNG_MAIN
 0000:8E40       C_8743
 0000:8EDF       C_87E2
 0000:8FE5       C_88E8
 0000:901B       C_891E
 0000:905C       C_895F
 0000:909C       C_899F
 0000:90BA       C_89BD
 0000:90D8       C_89DB
 0000:9153       C_8A1F
 0000:918E       AMBUSH
 0000:91E4       CMD_HOLEUP
 0000:933C       CMD_MIX
 0000:947F       C_8D4B
 0000:94A1       C_8D6D
 0000:94DE       C_8DAA
 0000:9514       C_8DE0
 0000:954A       C_8E16
 0000:957A       C_8E46
 0000:95AB       C_RING
 0000:95DC       C_8E77
 0000:960D       C_8EA8
 0000:964D       C_WAND
 0000:967E       C_8EE8
 0000:96B7       C_8F21
 0000:96E7       C_8F51
 0000:9717       C_8F81
 0000:9747       C_8FB1
 0000:97BD       C_9027
 0000:980C       C_9076
 0000:985B       C_MBOW
 0000:9876  Abs  __acrtused
 0000:9876  Abs  __acrtmsg
 0000:988C       C_90C5
 0000:9901       CMD_SEARCH
 0000:9961       SLEEP
 0000:9998       POISON
 0000:99D0       RANDOM_ENCOUNTER
 0000:9B6C       C_93A5
 0000:9BDB       C_9414
 0000:9D71       C_95AA
 0000:9E4A       C_9683
 0000:9E80       C_96B9
 0000:9F2B       C_9764
 0000:9F53       PROJ_ATTACK
 0000:A0AB       C_98E4
 0000:A208       C_9A41
 0000:A2CA       CHECKJINX
 0000:A332       C_9B6B
 0000:A36D       C_9BA6
 0000:A3AC       C_9BE5
 0000:A41D       C_9C56
 0000:A483       C_9CBC
 0000:A742       C_9F7B
 0000:A934       C_A163
 0000:A9FE       C_A22D
 0000:AA16       TLK_SPECIAL1
 0000:AA24       TLK_SPECIAL2
 0000:AA32       TLK_NAME
 0000:AA51       TLK_LOOK
 0000:AA6A       TLK_JOB
 0000:AA7C       TLK_HEALTH
 0000:AA8E       TLK_JOIN
 0000:AB73       TLK_GIVE
 0000:AC14       C_A443
 0000:AC50       C_A47F
 0000:AC85       C_A4B4
 0000:AE57       C_A686
 0000:AEC4       CMD_TALK
 0000:AFC3       C_A7F2
 0000:B013       C_A842
 0000:B11B       C_A94A
 0000:B1FA       C_AA29
 0000:B2D9       C_AB08
 0000:B3B6       C_ABE5
 0000:B3F4       C_AC23
 0000:B53B       C_AD6A
 0000:B5C0       C_ADEF
 0000:B612       C_AE41
 0000:B707       C_AF36
 0000:B786       C_AFB5
 0000:B8BA       C_B0E9
 0000:B9EE       C_B21D
 0000:BA2F       C_B25E
 0000:BA6D       C_B29C
 0000:BAAB       C_B2DA
 0000:BAEC       C_B31B
 0000:BB2D       C_B35C
 0000:BB7F       C_B3AE
 0000:BBB4       C_B3E3
 0000:BBE9       C_B418
 0000:BC4B       C_B47A
 0000:BCB0       C_B4DF
 0000:BDED       C_B61C
 0000:BE48       C_B677
 0000:BF01       C_B730
 0000:BF41       C_B770
 0000:BF66       C_B795
 0000:C034       C_B863
 0000:C110       C_B93F
 0000:C183       C_B9B2
 0000:C1C0       PER_WORLD
 0000:CA0C       PER_DUNG
 0000:CBD4       C_C403
 0000:CC03       CMD_PEER
 0000:CC2B       C_C445
 0000:CC30       C_C44A
 0000:CC35       C_C44F
 0000:CC3A       C_C454
 0000:CD02       C_C51C
 0000:D108       SHP_HAWKWIND
 0000:D2DC       SHP_REAGENT
 0000:D503       C_CD1D
 0000:D566       C_CD80
 0000:D6A4       C_CEBE
 0000:D86B       SHP_WEAPON
 0000:D953       C_D16D
 0000:D9B6       C_D1D0
 0000:DADE       C_D2F8
 0000:DC94       SHP_ARMOR
 0000:DD7C       SHP_HORSE
 0000:DE04       SHP_GUILD
 0000:DF8E       ENC_INN
 0000:DFBC       C_D7D6
 0000:E0C3       SHP_INN
 0000:E1EB       C_DA05
 0000:E224       C_DA3E
 0000:E25F       C_DA79
 0000:E288       C_DAA2
 0000:E30F       C_DB29
 0000:E379       C_DB93
 0000:E3DB       C_DBF5
 0000:E433       SHP_HEALER
 0000:E50A       C_DD24
 0000:E61B       C_DE35
 0000:E795       SHP_PUB
 0000:E86E       SHP_FOOD
 0000:E9E2       C_E1FC
 0000:EA04       C_E21E
 0000:EB64       C_E37E
 0000:EBB8       C_E3D2
 0000:EBEE       C_E408
 0000:EC28       C_E442
 0000:EC7E       C_E498
 0000:ECA9       C_E4C3
 0000:ED81       C_E59B
 0000:EEC5       C_E6DF
 0000:EF12       ENTER_SHRINE
 0000:F12D       ENTER_ORACLE
 0000:F3A3       SHR_KEYWORDS
 0000:F3F7       TALK_ORACLE
 0000:F499       _atol
 0000:F49C       __astart
 0000:F538       __cintDIV
 0000:F53B       __amsg_exit
 0000:F546       __cinit
 0000:F5F5       _exit
 0000:F60C       __exit
 0000:F638       __ctermsub
 0000:F660       _memcpy
 0000:F6B2       _setjmp
 0000:F6CF       _longjmp
 0000:F6F0       _strcat
 0000:F721       _strchr
 0000:F74B       _strcpy
 0000:F770       _strlen
 0000:F78B       _strnicmp
 0000:F7E2       __catox
 0000:F837       __nullcheck
 0000:F853       __NMSG_TEXT
 0000:F883       __NMSG_WRITE
 0000:F8AC       __setargv
 0000:F991       __setenvp
 0000:F9F7       __myalloc
 0000:FA39       __aNldiv
 0000:FADC       __aNulmul
 0000:FADC       __aNlmul
 0000:FB08       __aNlrem
 0000:FBAE       __aNuldiv
 0000:FC13       __aNulshr
 0FC2:0036       MSG_DSKERR
 0FC2:005E       MSG_SYSERR
 0FC2:0078       far_psp
 0FC2:00EE       D_00EE
 0FC2:0100       D_0100
 0FC2:010E       D_010E
 0FC2:0284       D_0284
 0FC2:04E4       D_0434
 0FC2:072A       cursor_rate
 0FC2:076A       _SoundFlag
 0FC2:0A0C       D_07F8
 0FC2:0A0E       PKARMAS
 0FC2:0A1E       ACTIVECHARAX
 0FC2:0A20       D_080C
 0FC2:0A24       D_0810
 0FC2:0A28       D_0814
 0FC2:0A30       D_081C
 0FC2:0A38       TOWNE_CASTLE_VILLAGE
 0FC2:0A94       D_0844
 0FC2:0AC2       D_0864
 0FC2:0AF0       DUNGEONS
 0FC2:0B00       SHRINES
 0FC2:0B10       CRYPTS
 0FC2:0B16       ORACLES
 0FC2:0B46       D_08CE
 0FC2:0B48       D_08D0
 0FC2:0B64       D_08EC
 0FC2:0B6C       D_08F4
 0FC2:0B74       D_08FC
 0FC2:0B7C       D_0904
 0FC2:0E52       D_0BDA
 0FC2:0E68       D_0BF0
 0FC2:0E76       D_0BFE
 0FC2:1892       D_161A
 0FC2:1898       D_1620
 0FC2:18A8       D_1630
 0FC2:18CC       D_1654
 0FC2:18CE       D_1656
 0FC2:18DC       D_1664
 0FC2:18DD       D_1665
 0FC2:18DE       D_1666
 0FC2:18E0       D_1668
 0FC2:18E2       D_166A
 0FC2:18E4       D_166C
 0FC2:1AD2       HORSE_X
 0FC2:1AD4       HORSE_Y
 0FC2:1AD6       TALK_FILES
 0FC2:1BFC       D_17FA
 0FC2:1BFE       D_17FC
 0FC2:1C00       D_17FE
 0FC2:1E94       D_199A
 0FC2:1E9E       D_19A4
 0FC2:1EBA       D_19C0
 0FC2:24AC       D_SEA_CREA
 0FC2:24BE       D_CREA
 0FC2:24F6       D_WEAPONS
 0FC2:2518       D_ARMORS
 0FC2:2528       D_WEA_CODES
 0FC2:254A       D_CLASSES
 0FC2:256A       D_REAGENTS
 0FC2:257A       D_SPELLS
 0FC2:25AE       D_LOCATIONS
 0FC2:260A       D_VIRTUES
 0FC2:261A       D_ASSORTED
 0FC2:261C       D_PRINCIPLES
 0FC2:2622       D_1FD8
 0FC2:26D6       D_208C
 0FC2:27B8       D_216E
 0FC2:283E       D_21F4
 0FC2:2912       D_22C8
 0FC2:297E       WEAP_CLASS_MASK
 0FC2:298E       ARMOR_CLASS_MASK
 0FC2:2A1C       ENEMY_HP
 0FC2:2A50       D_2406
 0FC2:2A74       D_242A
 0FC2:2A9A       WEAP_DAM
 0FC2:2AAC       ARMOR_PROT
 0FC2:2AB4       RANGE_WEAP
 0FC2:2B5E       COMBAT_MAPS
 0FC2:2BBA       D_256E
 0FC2:2BDA       D_258E
 0FC2:2C66       D_261A
 0FC2:2D04       D_26B8
 0FC2:2DCA       D_277E
 0FC2:2DF2       D_27A6
 0FC2:2F92       D_2904
 0FC2:2FAE       D_2920
 0FC2:3118       D_2A7A
 0FC2:312E       D_2A90
 0FC2:3250       D_2BB2
 0FC2:3372       D_2CD4
 0FC2:33F2       D_2D54
 0FC2:3412       WALL_X0
 0FC2:3418       WALL_X1
 0FC2:341E       WALL_Y0
 0FC2:3424       WALL_Y1
 0FC2:342A       LDOOR_X0
 0FC2:342E       LDOOR_X1
 0FC2:3432       RDOOR_X0
 0FC2:3436       RDOOR_X1
 0FC2:343A       DOOR_Y0
 0FC2:343E       DOOR_Y0P
 0FC2:3442       DOOR_Y1
 0FC2:3446       DOOR_Y1P
 0FC2:344A       D_2DAC
 0FC2:344E       D_2DB0
 0FC2:3452       D_2DB4
 0FC2:3456       D_2DB8
 0FC2:345A       D_2DBC
 0FC2:345E       D_2DC0
 0FC2:3462       D_2DC4
 0FC2:3466       D_2DC8
 0FC2:346A       LADDER_X0
 0FC2:346E       LADDER_X1
 0FC2:3472       D_2DD4
 0FC2:3476       D_2DD8
 0FC2:347A       D_2DDC
 0FC2:347E       D_2DE0
 0FC2:3482       D_2DE4
 0FC2:3486       D_2DE8
 0FC2:348A       D_2DEC
 0FC2:348C       D_2DEE
 0FC2:34A2       D_2E04
 0FC2:350C       D_2E6E
 0FC2:351C       D_2E7E
 0FC2:3610       D_2F72
 0FC2:3690       D_2FF2
 0FC2:45AA       D_3F0C
 0FC2:480E       D_4170
 0FC2:481E       D_4180
 0FC2:4826       D_4188
 0FC2:482E       D_4190
 0FC2:4D40       D_46A2
 0FC2:4D4C       D_46AE
 0FC2:4D58       D_46BA
 0FC2:4D70       D_46D2
 0FC2:4D90       D_46F2
 0FC2:4DA0       D_4702
 0FC2:524C       D_4BAE
 0FC2:5256       D_4BB8
 0FC2:5262       D_4BC4
 0FC2:527A       D_4BDC
 0FC2:528A       D_4BEC
 0FC2:529A       D_4BFC
 0FC2:5834       D_5196
 0FC2:5844       D_51A6
 0FC2:584C       D_51AE
 0FC2:5854       D_51B6
 0FC2:5858       D_51BA
 0FC2:585C       D_51BE
 0FC2:5B22       D_5484
 0FC2:5B32       D_5494
 0FC2:5B3A       D_549C
 0FC2:5B42       D_54A4
 0FC2:5B4A       D_54AC
 0FC2:5B58       D_54BA
 0FC2:5B66       D_54C8
 0FC2:5D10       D_5672
 0FC2:5D14       D_5676
 0FC2:5D18       D_567A
 0FC2:5E26       D_5788
 0FC2:5E36       D_5798
 0FC2:5E4A       D_57AC
 0FC2:6586       D_5EE8
 0FC2:6596       D_5EF8
 0FC2:65A2       D_5F04
 0FC2:65AE       D_5F10
 0FC2:65BA       D_5F1C
 0FC2:65C6       D_5F28
 0FC2:65D2       D_5F34
 0FC2:65E0       D_5F42
 0FC2:6A0A       D_636C
 0FC2:6A1A       D_637C
 0FC2:6A24       D_6386
 0FC2:6A2E       D_6390
 0FC2:768E       D_6FF0
 0FC2:76C6       D_7028
 0FC2:8CB6       MANTRAS
 0FC2:8CC6       VISIONS
 0FC2:8CF6       D_8362
 0FC2:8D06       WORDS_PASSAGE
 0FC2:8D18       KEYWORDS
 0FC2:8D50       KEYWORDS_RESPONSE
 0FC2:9282       __asizds
 0FC2:9284       __atopsp
 0FC2:9286       __abrktb
 0FC2:92D6       __abrktbe
 0FC2:92D6       __abrkp
 0FC2:92E4       __aintdiv
 0FC2:92E8       __fac
 0FC2:92F0       _errno
 0FC2:92F2       __umaskval
 0FC2:92F4       __pspadr
 0FC2:92F6       __psp
 0FC2:92F8       __osmajor
 0FC2:92F8       __dosvermajor
 0FC2:92F9       __osminor
 0FC2:92F9       __dosverminor
 0FC2:92FA       __oserr
 0FC2:92FA       __doserrno
 0FC2:92FC       __osfile
 0FC2:9310       ___argc
 0FC2:9312       ___argv
 0FC2:9314       _environ
 0FC2:9316       __child
 0FC2:9318       __csigtab
 0FC2:9324       __fpinit
 0FC2:940C       _edata
 0FC2:9410       D_9140
 0FC2:9411       D_9141
 0FC2:9412       D_9142
 0FC2:9414       Party
 0FC2:960A       D_933A
 0FC2:970A       D_943A
 0FC2:970C       tile_forward
 0FC2:970E       D_943E
 0FC2:9710       D_9440
 0FC2:9712       ship_x
 0FC2:9713       ship_y
 0FC2:9714       tile_cur
 0FC2:9715       D_9445
 0FC2:9716       D_9446
 0FC2:9718       D_9448
 0FC2:971A       D_944A
 0FC2:9722       D_9452
 0FC2:9724       pShapes
 0FC2:9728       D_9458
 0FC2:973A       CurMode
 0FC2:973C       D_946C
 0FC2:973E       spell_cnt
 0FC2:9740       Combat
 0FC2:9800       Fighters
 0FC2:9868       File_DNG
 0FC2:986A       activeChara
 0FC2:986C       D_959C
 0FC2:986E       tile_east
 0FC2:9870       pCharset
 0FC2:9874       spell_sta
 0FC2:9875       D_95A5
 0FC2:9878       txt_X
 0FC2:987A       tile_north
 0FC2:987C       activeCharaY
 0FC2:987E       hit_tile
 0FC2:9880       hit_x
 0FC2:9881       hit_y
 0FC2:9882       D_95B2
 0FC2:9892       tile_west
 0FC2:9893       tile_south
 0FC2:9894       txt_Y
 0FC2:9896       DoublePace
 0FC2:9898       D_95C8
 0FC2:989A       tile_back
 0FC2:989C       D_95CC
 0FC2:989E       D_95CE
 0FC2:99BE       D_96EE
 0FC2:99C0       File_MAP
 0FC2:99C2       WindDir
 0FC2:99C4       D_96F4
 0FC2:99C6       File_TLK
 0FC2:99C8       D_96F8
 0FC2:99C9       D_96F9
 0FC2:9A42       D_9772
 0FC2:9A4C       speed_info
 0FC2:9A4F       equip_flags
 0FC2:9A51       patch_tandy
 0FC2:9A56       seed_0
 0FC2:9A5A       seed_1
 0FC2:9A5E       seed_2
 0FC2:9A62       seed_3
 0FC2:9A66       D_8742
 0FC2:9F66       Lone_NPC
 0FC2:A970       _end

Program entry point at 0000:F49C
